; Function Attrs: mustprogress uwtable
define hidden void @_ZNK3ue220RoseInstrCheckMask645writeEPvRNS_14RoseEngineBlobERKSt13unordered_mapIPKNS_15RoseInstructionEjSt4hashIS7_ESt8equal_toIS7_ESaISt4pairIKS7_jEEE(ptr noundef nonnull align 8 dereferenceable(160) %0, ptr noundef writeonly captures(none) initializes((0, 152)) %1, ptr nonnull readnone align 8 captures(none) %2, ptr noundef nonnull readonly align 8 captures(none) dereferenceable(56) %3) unnamed_addr #5 align 2 personality ptr @__gxx_personality_v0 {
  tail call void @llvm.memset.p0.i64(ptr noundef nonnull align 8 dereferenceable(152) %1, i8 0, i64 152, i1 false)
  store i8 69, ptr %1, align 8
  %5 = getelementptr inbounds nuw i8, ptr %0, i64 8
  %6 = getelementptr inbounds nuw i8, ptr %1, i64 1
  tail call void @llvm.memmove.p0.p0.i64(ptr noundef nonnull align 1 dereferenceable(64) %6, ptr noundef nonnull align 8 dereferenceable(64) %5, i64 64, i1 false)
  %7 = getelementptr inbounds nuw i8, ptr %0, i64 72
  %8 = getelementptr inbounds nuw i8, ptr %1, i64 65
  tail call void @llvm.memmove.p0.p0.i64(ptr noundef nonnull align 1 dereferenceable(64) %8, ptr noundef nonnull align 8 dereferenceable(64) %7, i64 64, i1 false)
  %9 = getelementptr inbounds nuw i8, ptr %0, i64 136
  %10 = load i64, ptr %9, align 8
  %11 = getelementptr inbounds nuw i8, ptr %1, i64 136
  store i64 %10, ptr %11, align 8
  %12 = getelementptr inbounds nuw i8, ptr %0, i64 144
  %13 = load i32, ptr %12, align 8
  %14 = getelementptr inbounds nuw i8, ptr %1, i64 144
  store i32 %13, ptr %14, align 8
  %15 = getelementptr inbounds nuw i8, ptr %0, i64 152
  %16 = load ptr, ptr %15, align 8
  %17 = tail call fastcc noundef i32 @_ZN3ue2L9calc_jumpERKSt13unordered_mapIPKNS_15RoseInstructionEjSt4hashIS3_ESt8equal_toIS3_ESaISt4pairIKS3_jEEES3_S3_(ptr noundef nonnull align 8 dereferenceable(56) %3, ptr noundef %0, ptr noundef %16)
  %18 = getelementptr inbounds nuw i8, ptr %1, i64 148
  store i32 %17, ptr %18, align 4
  ret void
}